target datalayout = "e-m:e-p270:32:32-p271:32:32-p272:64:64-i64:64-i128:128-f80:128-n8:16:32:64-S128"
target triple = "x86_64-unknown-linux-gnu"

; Function Attrs: mustprogress uwtable
define linkonce_odr hidden void @_ZN6google8protobuf8compiler20CodeGeneratorRequest9MergeFromERKS2_(ptr noundef nonnull align 8 dereferenceable(112) %this, ptr noundef nonnull align 8 dereferenceable(112) %from) #4 comdat align 2 {
entry:
  %this.addr = alloca ptr, align 8
  %from.addr = alloca ptr, align 8
  store ptr %this, ptr %this.addr, align 8
  store ptr %from, ptr %from.addr, align 8
  %this1 = load ptr, ptr %this.addr, align 8
  %0 = load ptr, ptr %from.addr, align 8
  call void @_ZN6google8protobuf8compiler20CodeGeneratorRequest9MergeImplERNS0_11MessageLiteERKS3_(ptr noundef nonnull align 8 dereferenceable(16) %this1, ptr noundef nonnull align 8 dereferenceable(16) %0)
  ret void
}

; Function Attrs: mustprogress uwtable
define void @_ZN6google8protobuf8compiler20CodeGeneratorRequest8CopyFromERKS2_(ptr noundef nonnull align 8 dereferenceable(112) %this, ptr noundef nonnull align 8 dereferenceable(112) %from) #4 align 2 {
entry:
  %this.addr = alloca ptr, align 8
  %from.addr = alloca ptr, align 8
  store ptr %this, ptr %this.addr, align 8
  store ptr %from, ptr %from.addr, align 8
  %this1 = load ptr, ptr %this.addr, align 8
  %0 = load ptr, ptr %from.addr, align 8
  %cmp = icmp eq ptr %0, %this1
  br i1 %cmp, label %if.then, label %if.end

if.then:                                          ; preds = %entry
  br label %return

if.end:                                           ; preds = %entry
  call void @_ZN6google8protobuf8compiler20CodeGeneratorRequest5ClearEv(ptr noundef nonnull align 8 dereferenceable(112) %this1)
  %1 = load ptr, ptr %from.addr, align 8
  call void @_ZN6google8protobuf8compiler20CodeGeneratorRequest9MergeFromERKS2_(ptr noundef nonnull align 8 dereferenceable(112) %this1, ptr noundef nonnull align 8 dereferenceable(112) %1)
  br label %return

return:                                           ; preds = %if.end, %if.then
  ret void
}