; Function Attrs: mustprogress uwtable
define void @_ZN6google8protobuf8compiler20CodeGeneratorRequest8CopyFromERKS2_(ptr noundef nonnull align 8 dereferenceable(112) %this, ptr noundef nonnull align 8 dereferenceable(112) %from) local_unnamed_addr #3 align 2 {
entry:
  %cmp = icmp eq ptr %from, %this
  br i1 %cmp, label %return, label %if.end

if.end:                                           ; preds = %entry
  tail call void @_ZN6google8protobuf8compiler20CodeGeneratorRequest5ClearEv(ptr noundef nonnull align 8 dereferenceable(112) %this)
  tail call void @_ZN6google8protobuf8compiler20CodeGeneratorRequest9MergeImplERNS0_11MessageLiteERKS3_(ptr noundef nonnull align 8 dereferenceable(16) %this, ptr noundef nonnull align 8 dereferenceable(16) %from)
  br label %return

return:                                           ; preds = %entry, %if.end
  ret void
}